target datalayout = "e-m:e-p270:32:32-p271:32:32-p272:64:64-i64:64-i128:128-f80:128-n8:16:32:64-S128"
target triple = "x86_64-pc-linux-gnu"

@H5_libinit_g = external global i8, align 1
@H5_libterm_g = external global i8, align 1
@.str = private unnamed_addr constant [97 x i8] c"generated/home/dtcxzyw/WorkSpace/Projects/compilers/llvm-opt-benchmark/bench/hdf5/hdf5/src/H5I.c\00", align 1
@H5E_FUNC_g = external global i64, align 8
@H5E_CANTINIT_g = external global i64, align 8
@.str.1 = private unnamed_addr constant [30 x i8] c"library initialization failed\00", align 1
@H5E_CANTSET_g = external global i64, align 8
@.str.2 = private unnamed_addr constant [22 x i8] c"can't set API context\00", align 1
@H5E_ID_g = external global i64, align 8
@H5E_ARGS_g = external global i64, align 8
@H5E_BADRANGE_g = external global i64, align 8
@H5E_CANTGET_g = external global i64, align 8
@__func__.H5Iget_file_id = private unnamed_addr constant [15 x i8] c"H5Iget_file_id\00", align 1
@H5E_BADTYPE_g = external global i64, align 8
@.str.21 = private unnamed_addr constant [28 x i8] c"invalid location identifier\00", align 1
@.str.22 = private unnamed_addr constant [23 x i8] c"can't retrieve file ID\00", align 1
@.str.23 = private unnamed_addr constant [27 x i8] c"not an ID of a file object\00", align 1

; Function Attrs: nounwind uwtable
define i64 @H5Iget_file_id(i64 noundef %0) #0 {
  %2 = alloca i64, align 8
  %3 = alloca i32, align 4
  %4 = alloca i64, align 8
  %5 = alloca i8, align 1
  %6 = alloca i8, align 1
  %7 = alloca ptr, align 8
  store i64 %0, ptr %2, align 8
  store i64 -1, ptr %4, align 8
  store i8 0, ptr %5, align 1
  store i8 0, ptr %6, align 1
  %8 = load i8, ptr @H5_libinit_g, align 1
  %9 = trunc i8 %8 to i1
  br i1 %9, label %14, label %10

10:                                               ; preds = %1
  %11 = load i8, ptr @H5_libterm_g, align 1
  %12 = trunc i8 %11 to i1
  %13 = xor i1 %12, true
  br label %14

14:                                               ; preds = %10, %1
  %15 = phi i1 [ false, %1 ], [ %13, %10 ]
  %16 = xor i1 %15, true
  %17 = xor i1 %16, true
  %18 = zext i1 %17 to i32
  %19 = sext i32 %18 to i64
  %20 = icmp ne i64 %19, 0
  br i1 %20, label %21, label %45

21:                                               ; preds = %14
  %22 = call i32 @H5_init_library()
  %23 = icmp slt i32 %22, 0
  %24 = xor i1 %23, true
  %25 = xor i1 %24, true
  %26 = zext i1 %25 to i32
  %27 = sext i32 %26 to i64
  %28 = icmp ne i64 %27, 0
  br i1 %28, label %29, label %44

29:                                               ; preds = %21
  br label %30

30:                                               ; preds = %29
  br label %31

31:                                               ; preds = %30
  br label %32

32:                                               ; preds = %31
  %33 = load i64, ptr @H5E_FUNC_g, align 8
  %34 = load i64, ptr @H5E_CANTINIT_g, align 8
  %35 = call i32 (ptr, ptr, i32, i64, i64, ptr, ...) @H5E_printf_stack(ptr noundef @.str, ptr noundef @__func__.H5Iget_file_id, i32 noundef 835, i64 noundef %33, i64 noundef %34, ptr noundef @.str.1)
  br label %36

36:                                               ; preds = %32
  store i8 1, ptr %6, align 1
  %37 = load i8, ptr %6, align 1
  %38 = trunc i8 %37 to i1
  %39 = zext i1 %38 to i8
  store i8 %39, ptr %6, align 1
  br label %40

40:                                               ; preds = %36
  br label %41

41:                                               ; preds = %40
  store i64 -1, ptr %4, align 8
  br label %145

42:                                               ; No predecessors!
  br label %43

43:                                               ; preds = %42
  br label %44

44:                                               ; preds = %43, %21
  br label %45

45:                                               ; preds = %44, %14
  %46 = call i32 @H5CX_push()
  %47 = icmp slt i32 %46, 0
  %48 = xor i1 %47, true
  %49 = xor i1 %48, true
  %50 = zext i1 %49 to i32
  %51 = sext i32 %50 to i64
  %52 = icmp ne i64 %51, 0
  br i1 %52, label %53, label %68

53:                                               ; preds = %45
  br label %54

54:                                               ; preds = %53
  br label %55

55:                                               ; preds = %54
  br label %56

56:                                               ; preds = %55
  %57 = load i64, ptr @H5E_FUNC_g, align 8
  %58 = load i64, ptr @H5E_CANTSET_g, align 8
  %59 = call i32 (ptr, ptr, i32, i64, i64, ptr, ...) @H5E_printf_stack(ptr noundef @.str, ptr noundef @__func__.H5Iget_file_id, i32 noundef 835, i64 noundef %57, i64 noundef %58, ptr noundef @.str.2)
  br label %60

60:                                               ; preds = %56
  store i8 1, ptr %6, align 1
  %61 = load i8, ptr %6, align 1
  %62 = trunc i8 %61 to i1
  %63 = zext i1 %62 to i8
  store i8 %63, ptr %6, align 1
  br label %64

64:                                               ; preds = %60
  br label %65

65:                                               ; preds = %64
  store i64 -1, ptr %4, align 8
  br label %145

66:                                               ; No predecessors!
  br label %67

67:                                               ; preds = %66
  br label %69

68:                                               ; preds = %45
  store i8 1, ptr %5, align 1
  br label %69

69:                                               ; preds = %68, %67
  %70 = call i32 @H5E_clear_stack()
  %71 = load i64, ptr %2, align 8
  %72 = ashr i64 %71, 56
  %73 = and i64 %72, 127
  %74 = trunc i64 %73 to i32
  store i32 %74, ptr %3, align 4
  %75 = load i32, ptr %3, align 4
  %76 = icmp eq i32 1, %75
  br i1 %76, label %89, label %77

77:                                               ; preds = %69
  %78 = load i32, ptr %3, align 4
  %79 = icmp eq i32 3, %78
  br i1 %79, label %89, label %80

80:                                               ; preds = %77
  %81 = load i32, ptr %3, align 4
  %82 = icmp eq i32 2, %81
  br i1 %82, label %89, label %83

83:                                               ; preds = %80
  %84 = load i32, ptr %3, align 4
  %85 = icmp eq i32 5, %84
  br i1 %85, label %89, label %86

86:                                               ; preds = %83
  %87 = load i32, ptr %3, align 4
  %88 = icmp eq i32 7, %87
  br i1 %88, label %89, label %129

89:                                               ; preds = %86, %83, %80, %77, %69
  %90 = load i64, ptr %2, align 8
  %91 = call ptr @H5VL_vol_object(i64 noundef %90)
  store ptr %91, ptr %7, align 8
  %92 = icmp eq ptr null, %91
  br i1 %92, label %93, label %108

93:                                               ; preds = %89
  br label %94

94:                                               ; preds = %93
  br label %95

95:                                               ; preds = %94
  br label %96

96:                                               ; preds = %95
  %97 = load i64, ptr @H5E_ID_g, align 8
  %98 = load i64, ptr @H5E_BADTYPE_g, align 8
  %99 = call i32 (ptr, ptr, i32, i64, i64, ptr, ...) @H5E_printf_stack(ptr noundef @.str, ptr noundef @__func__.H5Iget_file_id, i32 noundef 847, i64 noundef %97, i64 noundef %98, ptr noundef @.str.21)
  br label %100

100:                                              ; preds = %96
  store i8 1, ptr %6, align 1
  %101 = load i8, ptr %6, align 1
  %102 = trunc i8 %101 to i1
  %103 = zext i1 %102 to i8
  store i8 %103, ptr %6, align 1
  br label %104

104:                                              ; preds = %100
  br label %105

105:                                              ; preds = %104
  store i64 -1, ptr %4, align 8
  br label %145

106:                                              ; No predecessors!
  br label %107

107:                                              ; preds = %106
  br label %108

108:                                              ; preds = %107, %89
  %109 = load ptr, ptr %7, align 8
  %110 = load i32, ptr %3, align 4
  %111 = call i64 @H5F_get_file_id(ptr noundef %109, i32 noundef %110, i1 noundef zeroext true)
  store i64 %111, ptr %4, align 8
  %112 = icmp slt i64 %111, 0
  br i1 %112, label %113, label %128

113:                                              ; preds = %108
  br label %114

114:                                              ; preds = %113
  br label %115

115:                                              ; preds = %114
  br label %116

116:                                              ; preds = %115
  %117 = load i64, ptr @H5E_ID_g, align 8
  %118 = load i64, ptr @H5E_CANTGET_g, align 8
  %119 = call i32 (ptr, ptr, i32, i64, i64, ptr, ...) @H5E_printf_stack(ptr noundef @.str, ptr noundef @__func__.H5Iget_file_id, i32 noundef 851, i64 noundef %117, i64 noundef %118, ptr noundef @.str.22)
  br label %120

120:                                              ; preds = %116
  store i8 1, ptr %6, align 1
  %121 = load i8, ptr %6, align 1
  %122 = trunc i8 %121 to i1
  %123 = zext i1 %122 to i8
  store i8 %123, ptr %6, align 1
  br label %124

124:                                              ; preds = %120
  br label %125

125:                                              ; preds = %124
  store i64 -1, ptr %4, align 8
  br label %145

126:                                              ; No predecessors!
  br label %127

127:                                              ; preds = %126
  br label %128

128:                                              ; preds = %127, %108
  br label %144

129:                                              ; preds = %86
  br label %130

130:                                              ; preds = %129
  br label %131

131:                                              ; preds = %130
  br label %132

132:                                              ; preds = %131
  %133 = load i64, ptr @H5E_ARGS_g, align 8
  %134 = load i64, ptr @H5E_BADRANGE_g, align 8
  %135 = call i32 (ptr, ptr, i32, i64, i64, ptr, ...) @H5E_printf_stack(ptr noundef @.str, ptr noundef @__func__.H5Iget_file_id, i32 noundef 854, i64 noundef %133, i64 noundef %134, ptr noundef @.str.23)
  br label %136

136:                                              ; preds = %132
  store i8 1, ptr %6, align 1
  %137 = load i8, ptr %6, align 1
  %138 = trunc i8 %137 to i1
  %139 = zext i1 %138 to i8
  store i8 %139, ptr %6, align 1
  br label %140

140:                                              ; preds = %136
  br label %141

141:                                              ; preds = %140
  store i64 -1, ptr %4, align 8
  br label %145

142:                                              ; No predecessors!
  br label %143

143:                                              ; preds = %142
  br label %144

144:                                              ; preds = %143, %128
  br label %145

145:                                              ; preds = %144, %141, %125, %105, %65, %41
  %146 = load i8, ptr %5, align 1
  %147 = trunc i8 %146 to i1
  %148 = xor i1 %147, true
  %149 = xor i1 %148, true
  %150 = zext i1 %149 to i32
  %151 = sext i32 %150 to i64
  %152 = icmp ne i64 %151, 0
  br i1 %152, label %153, label %155

153:                                              ; preds = %145
  %154 = call i32 @H5CX_pop(i1 noundef zeroext true)
  store i8 0, ptr %5, align 1
  br label %155

155:                                              ; preds = %153, %145
  %156 = load i8, ptr %6, align 1
  %157 = trunc i8 %156 to i1
  %158 = xor i1 %157, true
  %159 = xor i1 %158, true
  %160 = zext i1 %159 to i32
  %161 = sext i32 %160 to i64
  %162 = icmp ne i64 %161, 0
  br i1 %162, label %163, label %165

163:                                              ; preds = %155
  %164 = call i32 @H5E_dump_api_stack()
  br label %165

165:                                              ; preds = %163, %155
  %166 = load i64, ptr %4, align 8
  ret i64 %166
}