; Function Attrs: nounwind uwtable
define range(i64 -1, -9223372036854775808) i64 @H5Iget_file_id(i64 noundef %0) local_unnamed_addr #0 {
  %2 = load i8, ptr @H5_libinit_g, align 1
  %3 = trunc i8 %2 to i1
  %4 = load i8, ptr @H5_libterm_g, align 1
  %5 = trunc i8 %4 to i1
  %6 = select i1 %3, i1 true, i1 %5
  br i1 %6, label %14, label %7

7:                                                ; preds = %1
  %8 = tail call i32 @H5_init_library() #3
  %9 = icmp slt i32 %8, 0
  br i1 %9, label %10, label %14

10:                                               ; preds = %7
  %11 = load i64, ptr @H5E_FUNC_g, align 8
  %12 = load i64, ptr @H5E_CANTINIT_g, align 8
  %13 = tail call i32 (ptr, ptr, i32, i64, i64, ptr, ...) @H5E_printf_stack(ptr noundef nonnull @.str, ptr noundef nonnull @__func__.H5Iget_file_id, i32 noundef 835, i64 noundef %11, i64 noundef %12, ptr noundef nonnull @.str.1) #3
  br label %.thread35

14:                                               ; preds = %7, %1
  %15 = tail call i32 @H5CX_push() #3
  %16 = icmp slt i32 %15, 0
  br i1 %16, label %17, label %21

17:                                               ; preds = %14
  %18 = load i64, ptr @H5E_FUNC_g, align 8
  %19 = load i64, ptr @H5E_CANTSET_g, align 8
  %20 = tail call i32 (ptr, ptr, i32, i64, i64, ptr, ...) @H5E_printf_stack(ptr noundef nonnull @.str, ptr noundef nonnull @__func__.H5Iget_file_id, i32 noundef 835, i64 noundef %18, i64 noundef %19, ptr noundef nonnull @.str.2) #3
  br label %.thread35

21:                                               ; preds = %14
  %22 = tail call i32 @H5E_clear_stack() #3
  %23 = lshr i64 %0, 56
  %24 = trunc nuw nsw i64 %23 to i32
  %25 = and i32 %24, 127
  %26 = icmp eq i32 %25, 2
  br i1 %26, label %28, label %switch.early.test

switch.early.test:                                ; preds = %21
  %27 = and i32 %24, 125
  switch i32 %27, label %42 [
    i32 5, label %28
    i32 1, label %28
  ]

28:                                               ; preds = %switch.early.test, %switch.early.test, %21
  %29 = tail call ptr @H5VL_vol_object(i64 noundef %0) #3
  %30 = icmp eq ptr %29, null
  br i1 %30, label %31, label %35

31:                                               ; preds = %28
  %32 = load i64, ptr @H5E_ID_g, align 8
  %33 = load i64, ptr @H5E_BADTYPE_g, align 8
  %34 = tail call i32 (ptr, ptr, i32, i64, i64, ptr, ...) @H5E_printf_stack(ptr noundef nonnull @.str, ptr noundef nonnull @__func__.H5Iget_file_id, i32 noundef 847, i64 noundef %32, i64 noundef %33, ptr noundef nonnull @.str.21) #3
  br label %.thread41

35:                                               ; preds = %28
  %36 = tail call i64 @H5F_get_file_id(ptr noundef nonnull %29, i32 noundef %25, i1 noundef zeroext true) #3
  %37 = icmp slt i64 %36, 0
  br i1 %37, label %38, label %47

38:                                               ; preds = %35
  %39 = load i64, ptr @H5E_ID_g, align 8
  %40 = load i64, ptr @H5E_CANTGET_g, align 8
  %41 = tail call i32 (ptr, ptr, i32, i64, i64, ptr, ...) @H5E_printf_stack(ptr noundef nonnull @.str, ptr noundef nonnull @__func__.H5Iget_file_id, i32 noundef 851, i64 noundef %39, i64 noundef %40, ptr noundef nonnull @.str.22) #3
  br label %.thread41

42:                                               ; preds = %switch.early.test
  %43 = load i64, ptr @H5E_ARGS_g, align 8
  %44 = load i64, ptr @H5E_BADRANGE_g, align 8
  %45 = tail call i32 (ptr, ptr, i32, i64, i64, ptr, ...) @H5E_printf_stack(ptr noundef nonnull @.str, ptr noundef nonnull @__func__.H5Iget_file_id, i32 noundef 854, i64 noundef %43, i64 noundef %44, ptr noundef nonnull @.str.23) #3
  br label %.thread41

.thread41:                                        ; preds = %42, %38, %31
  %46 = tail call i32 @H5CX_pop(i1 noundef zeroext true) #3
  br label %.thread35

47:                                               ; preds = %35
  %48 = tail call i32 @H5CX_pop(i1 noundef zeroext true) #3
  br label %50

.thread35:                                        ; preds = %17, %10, %.thread41
  %49 = tail call i32 @H5E_dump_api_stack() #3
  br label %50

50:                                               ; preds = %47, %.thread35
  %.03238 = phi i64 [ -1, %.thread35 ], [ %36, %47 ]
  ret i64 %.03238
}